target datalayout = "e-m:e-p270:32:32-p271:32:32-p272:64:64-i64:64-i128:128-f80:128-n8:16:32:64-S128"
target triple = "x86_64-pc-linux-gnu"

%struct.H5O_stab_t = type { i64, i64 }

; Function Attrs: nounwind uwtable
define internal i32 @H5O__stab_encode(ptr noundef %0, i1 noundef zeroext %1, i64 noundef %2, ptr noundef %3, ptr noundef %4) #0 {
  %6 = alloca ptr, align 8
  %7 = alloca i8, align 1
  %8 = alloca i64, align 8
  %9 = alloca ptr, align 8
  %10 = alloca ptr, align 8
  %11 = alloca ptr, align 8
  store ptr %0, ptr %6, align 8
  %12 = zext i1 %1 to i8
  store i8 %12, ptr %7, align 1
  store i64 %2, ptr %8, align 8
  store ptr %3, ptr %9, align 8
  store ptr %4, ptr %10, align 8
  %13 = load ptr, ptr %10, align 8
  store ptr %13, ptr %11, align 8
  %14 = load ptr, ptr %6, align 8
  %15 = load ptr, ptr %11, align 8
  %16 = getelementptr inbounds %struct.H5O_stab_t, ptr %15, i32 0, i32 0
  %17 = load i64, ptr %16, align 8
  call void @H5F_addr_encode(ptr noundef %14, ptr noundef %9, i64 noundef %17)
  %18 = load ptr, ptr %6, align 8
  %19 = load ptr, ptr %11, align 8
  %20 = getelementptr inbounds %struct.H5O_stab_t, ptr %19, i32 0, i32 1
  %21 = load i64, ptr %20, align 8
  call void @H5F_addr_encode(ptr noundef %18, ptr noundef %9, i64 noundef %21)
  ret i32 0
}