; Function Attrs: nounwind uwtable
define internal noundef i32 @H5O__stab_encode(ptr noundef %0, i1 zeroext %1, i64 %2, ptr noundef %3, ptr nocapture noundef readonly %4) #0 {
  %6 = alloca ptr, align 8
  store ptr %3, ptr %6, align 8
  %7 = load i64, ptr %4, align 8
  call void @H5F_addr_encode(ptr noundef %0, ptr noundef nonnull %6, i64 noundef %7) #5
  %8 = getelementptr inbounds i8, ptr %4, i64 8
  %9 = load i64, ptr %8, align 8
  call void @H5F_addr_encode(ptr noundef %0, ptr noundef nonnull %6, i64 noundef %9) #5
  ret i32 0
}